; Function Attrs: nounwind uwtable
define range(i32 -1, -2147483648) i32 @H5Iget_type(i64 noundef %0) local_unnamed_addr #0 {
  %2 = load i8, ptr @H5_libinit_g, align 1
  %3 = trunc i8 %2 to i1
  %4 = load i8, ptr @H5_libterm_g, align 1
  %5 = trunc i8 %4 to i1
  %6 = select i1 %3, i1 true, i1 %5
  br i1 %6, label %10, label %7

7:                                                ; preds = %1
  %8 = tail call i32 @H5_init_library() #3
  %9 = icmp slt i32 %8, 0
  br i1 %9, label %24, label %10

10:                                               ; preds = %7, %1
  %11 = tail call i32 @H5CX_push() #3
  %12 = icmp slt i32 %11, 0
  br i1 %12, label %24, label %13

13:                                               ; preds = %10
  %14 = tail call i32 @H5E_clear_stack() #3
  %15 = tail call i32 @H5I_get_type(i64 noundef %0) #3
  %16 = icmp sgt i32 %15, -1
  %17 = load i32, ptr @H5I_next_type_g, align 4
  %.not = icmp slt i32 %15, %17
  %or.cond = select i1 %16, i1 %.not, i1 false
  br i1 %or.cond, label %18, label %21

18:                                               ; preds = %13
  %19 = tail call ptr @H5I_object(i64 noundef %0) #3
  %20 = icmp eq ptr %19, null
  br i1 %20, label %21, label %22

21:                                               ; preds = %13, %18
  br label %22

22:                                               ; preds = %18, %21
  %.010.ph = phi i32 [ %15, %18 ], [ -1, %21 ]
  %23 = tail call i32 @H5CX_pop(i1 noundef zeroext true) #3
  br label %29

24:                                               ; preds = %10, %7
  %H5E_CANTINIT_g.sink = phi ptr [ @H5E_CANTINIT_g, %7 ], [ @H5E_CANTSET_g, %10 ]
  %.str.1.sink = phi ptr [ @.str.1, %7 ], [ @.str.2, %10 ]
  %25 = load i64, ptr @H5E_FUNC_g, align 8
  %26 = load i64, ptr %H5E_CANTINIT_g.sink, align 8
  %27 = tail call i32 (ptr, ptr, i32, i64, i64, ptr, ...) @H5E_printf_stack(ptr noundef nonnull @.str, ptr noundef nonnull @__func__.H5Iget_type, i32 noundef 395, i64 noundef %25, i64 noundef %26, ptr noundef nonnull %.str.1.sink) #3
  %28 = tail call i32 @H5E_dump_api_stack() #3
  br label %29

29:                                               ; preds = %22, %24
  %.0101523 = phi i32 [ -1, %24 ], [ %.010.ph, %22 ]
  ret i32 %.0101523
}